target datalayout = "e-m:e-p270:32:32-p271:32:32-p272:64:64-i64:64-i128:128-f80:128-n8:16:32:64-S128"
target triple = "x86_64-pc-linux-gnu"

%"class.zxing::ResultPoint" = type { %"class.zxing::Counted.base", float, float, [4 x i8] }
%"class.zxing::Counted.base" = type <{ ptr, i32 }>
%"class.zxing::Ref" = type { ptr }

; Function Attrs: mustprogress nounwind uwtable
define linkonce_odr hidden noundef ptr @_ZNK5zxing3RefINS_11ResultPointEEptEv(ptr noundef nonnull align 8 dereferenceable(8) %0) #1 comdat align 2 {
  %2 = alloca ptr, align 8
  store ptr %0, ptr %2, align 8, !tbaa !21
  %3 = load ptr, ptr %2, align 8
  %4 = getelementptr inbounds nuw %"class.zxing::Ref", ptr %3, i32 0, i32 0
  %5 = load ptr, ptr %4, align 8, !tbaa !23
  ret ptr %5
}

; Function Attrs: mustprogress uwtable
define hidden noundef zeroext i1 @_ZN5zxing11ResultPoint6equalsENS_3RefIS0_EE(ptr noundef nonnull align 8 dereferenceable(20) %0, ptr noundef %1) #0 align 2 {
  %3 = alloca ptr, align 8
  %4 = alloca ptr, align 8
  store ptr %0, ptr %3, align 8, !tbaa !3
  store ptr %1, ptr %4, align 8, !tbaa !21
  %5 = load ptr, ptr %3, align 8
  %6 = getelementptr inbounds nuw %"class.zxing::ResultPoint", ptr %5, i32 0, i32 1
  %7 = load float, ptr %6, align 4, !tbaa !10
  %8 = call noundef ptr @_ZNK5zxing3RefINS_11ResultPointEEptEv(ptr noundef nonnull align 8 dereferenceable(8) %1)
  %9 = load ptr, ptr %8, align 8, !tbaa !8
  %10 = getelementptr inbounds ptr, ptr %9, i64 2
  %11 = load ptr, ptr %10, align 8
  %12 = call noundef float %11(ptr noundef nonnull align 8 dereferenceable(20) %8)
  %13 = fsub float %7, %12
  %14 = fpext float %13 to double
  %15 = call double @llvm.fabs.f64(double %14)
  %16 = fcmp ole double %15, 0x3EB0C6F7A0B5ED8D
  br i1 %16, label %17, label %29

17:                                               ; preds = %2
  %18 = getelementptr inbounds nuw %"class.zxing::ResultPoint", ptr %5, i32 0, i32 2
  %19 = load float, ptr %18, align 8, !tbaa !15
  %20 = call noundef ptr @_ZNK5zxing3RefINS_11ResultPointEEptEv(ptr noundef nonnull align 8 dereferenceable(8) %1)
  %21 = load ptr, ptr %20, align 8, !tbaa !8
  %22 = getelementptr inbounds ptr, ptr %21, i64 3
  %23 = load ptr, ptr %22, align 8
  %24 = call noundef float %23(ptr noundef nonnull align 8 dereferenceable(20) %20)
  %25 = fsub float %19, %24
  %26 = fpext float %25 to double
  %27 = call double @llvm.fabs.f64(double %26)
  %28 = fcmp ole double %27, 0x3EB0C6F7A0B5ED8D
  br label %29

29:                                               ; preds = %17, %2
  %30 = phi i1 [ false, %2 ], [ %28, %17 ]
  ret i1 %30
}