; Function Attrs: mustprogress uwtable
define hidden noundef zeroext i1 @_ZN5zxing11ResultPoint6equalsENS_3RefIS0_EE(ptr noundef nonnull readonly align 8 captures(none) dereferenceable(20) %0, ptr noundef readonly captures(none) %1) local_unnamed_addr #5 align 2 {
  %3 = getelementptr inbounds nuw i8, ptr %0, i64 12
  %4 = load float, ptr %3, align 4, !tbaa !10
  %5 = load ptr, ptr %1, align 8, !tbaa !14
  %6 = load ptr, ptr %5, align 8, !tbaa !8
  %7 = getelementptr inbounds nuw i8, ptr %6, i64 16
  %8 = load ptr, ptr %7, align 8
  %9 = tail call noundef float %8(ptr noundef nonnull align 8 dereferenceable(20) %5)
  %10 = fsub float %4, %9
  %11 = tail call float @llvm.fabs.f32(float %10)
  %12 = fpext float %11 to double
  %13 = fcmp ugt double %12, 0x3EB0C6F7A0B5ED8D
  br i1 %13, label %26, label %14

14:                                               ; preds = %2
  %15 = getelementptr inbounds nuw i8, ptr %0, i64 16
  %16 = load float, ptr %15, align 8, !tbaa !13
  %17 = load ptr, ptr %1, align 8, !tbaa !14
  %18 = load ptr, ptr %17, align 8, !tbaa !8
  %19 = getelementptr inbounds nuw i8, ptr %18, i64 24
  %20 = load ptr, ptr %19, align 8
  %21 = tail call noundef float %20(ptr noundef nonnull align 8 dereferenceable(20) %17)
  %22 = fsub float %16, %21
  %23 = tail call float @llvm.fabs.f32(float %22)
  %24 = fpext float %23 to double
  %25 = fcmp ole double %24, 0x3EB0C6F7A0B5ED8D
  br label %26

26:                                               ; preds = %14, %2
  %27 = phi i1 [ false, %2 ], [ %25, %14 ]
  ret i1 %27
}